; Function Attrs: mustprogress uwtable
define hidden void @_ZN6google8protobuf8internal24SerializeMessageDispatchERKNS0_11MessageLiteEPKNS1_13FieldMetadataEiiPNS1_11ArrayOutputE(ptr noundef nonnull align 8 dereferenceable(16) %0, ptr noundef %1, i32 noundef %2, i32 noundef %3, ptr noundef captures(none) %4) local_unnamed_addr #4 {
  %6 = getelementptr inbounds nuw i8, ptr %4, i64 8
  %7 = load i8, ptr %6, align 8, !tbaa !24, !range !25, !noundef !26
  %8 = trunc nuw i8 %7 to i1
  %9 = load ptr, ptr %4, align 8, !tbaa !22
  %10 = tail call noundef ptr @_ZN6google8protobuf8internal24SerializeInternalToArrayEPKhPKNS1_13FieldMetadataEibPh(ptr noundef nonnull %0, ptr noundef %1, i32 noundef %2, i1 noundef zeroext %8, ptr noundef %9)
  store ptr %10, ptr %4, align 8, !tbaa !22
  ret void
}